; Function Attrs: nounwind uwtable
define internal range(i32 1, 3) i32 @test_stats_prefix_record_get() #0 {
  tail call void @stats_prefix_clear() #21
  tail call void @stats_prefix_record_get(ptr noundef nonnull @.str.80, i64 noundef 7, i1 noundef zeroext false) #21
  %1 = tail call ptr @stats_prefix_find(ptr noundef nonnull @.str.80, i64 noundef 7) #21
  %2 = icmp eq ptr %1, null
  br i1 %2, label %37, label %3

3:                                                ; preds = %0
  %4 = getelementptr inbounds nuw i8, ptr %1, i64 16
  %5 = load i64, ptr %4, align 8, !tbaa !21
  %6 = icmp eq i64 %5, 1
  br i1 %6, label %8, label %7

7:                                                ; preds = %3
  tail call void @__assert_fail(ptr noundef nonnull @.str.81, ptr noundef nonnull @.str.62, i32 noundef 257, ptr noundef nonnull @__PRETTY_FUNCTION__.test_stats_prefix_record_get) #22
  unreachable

8:                                                ; preds = %3
  %9 = getelementptr inbounds nuw i8, ptr %1, i64 40
  %10 = load i64, ptr %9, align 8, !tbaa !26
  %11 = icmp eq i64 %10, 0
  br i1 %11, label %13, label %12

12:                                               ; preds = %8
  tail call void @__assert_fail(ptr noundef nonnull @.str.82, ptr noundef nonnull @.str.62, i32 noundef 258, ptr noundef nonnull @__PRETTY_FUNCTION__.test_stats_prefix_record_get) #22
  unreachable

13:                                               ; preds = %8
  tail call void @stats_prefix_record_get(ptr noundef nonnull @.str.83, i64 noundef 7, i1 noundef zeroext false) #21
  %14 = load i64, ptr %4, align 8, !tbaa !21
  %15 = icmp eq i64 %14, 2
  br i1 %15, label %17, label %16

16:                                               ; preds = %13
  tail call void @__assert_fail(ptr noundef nonnull @.str.84, ptr noundef nonnull @.str.62, i32 noundef 260, ptr noundef nonnull @__PRETTY_FUNCTION__.test_stats_prefix_record_get) #22
  unreachable

17:                                               ; preds = %13
  %18 = load i64, ptr %9, align 8, !tbaa !26
  %19 = icmp eq i64 %18, 0
  br i1 %19, label %21, label %20

20:                                               ; preds = %17
  tail call void @__assert_fail(ptr noundef nonnull @.str.82, ptr noundef nonnull @.str.62, i32 noundef 261, ptr noundef nonnull @__PRETTY_FUNCTION__.test_stats_prefix_record_get) #22
  unreachable

21:                                               ; preds = %17
  tail call void @stats_prefix_record_get(ptr noundef nonnull @.str.83, i64 noundef 7, i1 noundef zeroext true) #21
  %22 = load i64, ptr %4, align 8, !tbaa !21
  %23 = icmp eq i64 %22, 3
  br i1 %23, label %25, label %24

24:                                               ; preds = %21
  tail call void @__assert_fail(ptr noundef nonnull @.str.85, ptr noundef nonnull @.str.62, i32 noundef 263, ptr noundef nonnull @__PRETTY_FUNCTION__.test_stats_prefix_record_get) #22
  unreachable

25:                                               ; preds = %21
  %26 = load i64, ptr %9, align 8, !tbaa !26
  %27 = icmp eq i64 %26, 1
  br i1 %27, label %29, label %28

28:                                               ; preds = %25
  tail call void @__assert_fail(ptr noundef nonnull @.str.86, ptr noundef nonnull @.str.62, i32 noundef 264, ptr noundef nonnull @__PRETTY_FUNCTION__.test_stats_prefix_record_get) #22
  unreachable

29:                                               ; preds = %25
  tail call void @stats_prefix_record_get(ptr noundef nonnull @.str.87, i64 noundef 4, i1 noundef zeroext true) #21
  %30 = load i64, ptr %4, align 8, !tbaa !21
  %31 = icmp eq i64 %30, 3
  br i1 %31, label %33, label %32

32:                                               ; preds = %29
  tail call void @__assert_fail(ptr noundef nonnull @.str.85, ptr noundef nonnull @.str.62, i32 noundef 266, ptr noundef nonnull @__PRETTY_FUNCTION__.test_stats_prefix_record_get) #22
  unreachable

33:                                               ; preds = %29
  %34 = load i64, ptr %9, align 8, !tbaa !26
  %35 = icmp eq i64 %34, 1
  br i1 %35, label %37, label %36

36:                                               ; preds = %33
  tail call void @__assert_fail(ptr noundef nonnull @.str.86, ptr noundef nonnull @.str.62, i32 noundef 267, ptr noundef nonnull @__PRETTY_FUNCTION__.test_stats_prefix_record_get) #22
  unreachable

37:                                               ; preds = %33, %0
  %.0 = phi i32 [ 2, %0 ], [ 1, %33 ]
  ret i32 %.0
}